GAS LISTING C:\Users\Aluno\AppData\Local\Temp\ccoLMpP2.s 			page 1


   1               		.file	"main.cpp"
   2               	__SP_H__ = 0x3e
   3               	__SP_L__ = 0x3d
   4               	__SREG__ = 0x3f
   5               	__tmp_reg__ = 0
   6               	__zero_reg__ = 1
   7               		.text
   8               		.section	.text.main,"ax",@progbits
   9               	.global	main
  11               	main:
  12               	/* prologue: function */
  13               	/* frame size = 0 */
  14               	/* stack size = 0 */
  15               	.L__stack_usage = 0
  16 0000 1092 C100 		sts 193,__zero_reg__
  17 0004 8FEF      		ldi r24,lo8(-1)
  18 0006 8AB9      		out 0xa,r24
  19 0008 1BB8      		out 0xb,__zero_reg__
  20 000a 14B8      		out 0x4,__zero_reg__
  21 000c 85B1      		in r24,0x5
  22 000e 8460      		ori r24,lo8(4)
  23 0010 85B9      		out 0x5,r24
  24 0012 EBE6      		ldi r30,lo8(107)
  25 0014 F0E0      		ldi r31,0
  26 0016 8081      		ld r24,Z
  27 0018 8460      		ori r24,lo8(4)
  28 001a 8083      		st Z,r24
  29 001c E8E6      		ldi r30,lo8(104)
  30 001e F0E0      		ldi r31,0
  31 0020 8081      		ld r24,Z
  32 0022 8160      		ori r24,lo8(1)
  33 0024 8083      		st Z,r24
  34               	/* #APP */
  35               	 ;  55 "main.cpp" 1
  36 0026 7894      		sei
  37               	 ;  0 "" 2
  38               	/* #NOAPP */
  39 0028 EFE6      		ldi r30,lo8(111)
  40 002a F0E0      		ldi r31,0
  41 002c 8081      		ld r24,Z
  42 002e 8160      		ori r24,lo8(1)
  43 0030 8083      		st Z,r24
  44 0032 E1E8      		ldi r30,lo8(-127)
  45 0034 F0E0      		ldi r31,0
  46 0036 8081      		ld r24,Z
  47 0038 8460      		ori r24,lo8(4)
  48 003a 8083      		st Z,r24
  49               	.L10:
  50 003c 32E0      		ldi r19,lo8(2)
  51               	.L2:
  52               	.L3:
  53 003e 8091 0000 		lds r24,inter
  54 0042 8111      		cpse r24,__zero_reg__
  55 0044 00C0      		rjmp .L3
  56 0046 832F      		mov r24,r19
  57 0048 8160      		ori r24,lo8(1)
  58 004a 8BB9      		out 0xb,r24
GAS LISTING C:\Users\Aluno\AppData\Local\Temp\ccoLMpP2.s 			page 2


  59 004c 2FEF      		ldi r18,lo8(799999)
  60 004e 44E3      		ldi r20,hi8(799999)
  61 0050 5CE0      		ldi r21,hlo8(799999)
  62 0052 2150      	1:	subi r18,1
  63 0054 4040      		sbci r20,0
  64 0056 5040      		sbci r21,0
  65 0058 01F4      		brne 1b
  66 005a 00C0      		rjmp .
  67 005c 0000      		nop
  68               	.L4:
  69 005e 9091 0000 		lds r25,inter
  70 0062 9111      		cpse r25,__zero_reg__
  71 0064 00C0      		rjmp .L4
  72 0066 832F      		mov r24,r19
  73 0068 8260      		ori r24,lo8(2)
  74 006a 8BB9      		out 0xb,r24
  75 006c 8FEF      		ldi r24,lo8(799999)
  76 006e 24E3      		ldi r18,hi8(799999)
  77 0070 4CE0      		ldi r20,hlo8(799999)
  78 0072 8150      	1:	subi r24,1
  79 0074 2040      		sbci r18,0
  80 0076 4040      		sbci r20,0
  81 0078 01F4      		brne 1b
  82 007a 00C0      		rjmp .
  83 007c 0000      		nop
  84 007e 22E0      		ldi r18,lo8(2)
  85 0080 00C0      		rjmp .L5
  86               	.L11:
  87 0082 330F      		lsl r19
  88 0084 292F      		mov r18,r25
  89               	.L8:
  90 0086 8091 0000 		lds r24,inter
  91 008a 8111      		cpse r24,__zero_reg__
  92 008c 00C0      		rjmp .L8
  93 008e 832F      		mov r24,r19
  94 0090 822B      		or r24,r18
  95 0092 8BB9      		out 0xb,r24
  96 0094 5FEF      		ldi r21,lo8(799999)
  97 0096 84E3      		ldi r24,hi8(799999)
  98 0098 4CE0      		ldi r20,hlo8(799999)
  99 009a 5150      	1:	subi r21,1
 100 009c 8040      		sbci r24,0
 101 009e 4040      		sbci r20,0
 102 00a0 01F4      		brne 1b
 103 00a2 00C0      		rjmp .
 104 00a4 0000      		nop
 105               	.L5:
 106 00a6 2038      		cpi r18,lo8(-128)
 107 00a8 01F0      		breq .L10
 108 00aa 3217      		cp r19,r18
 109 00ac 01F0      		breq .L11
 110 00ae 2223      		tst r18
 111 00b0 01F0      		breq .L3
 112 00b2 220F      		lsl r18
 113 00b4 00C0      		rjmp .L8
 115               		.section	.text.__vector_3,"ax",@progbits
 116               	.global	__vector_3
GAS LISTING C:\Users\Aluno\AppData\Local\Temp\ccoLMpP2.s 			page 3


 118               	__vector_3:
 119 0000 1F92      		push r1
 120 0002 0F92      		push r0
 121 0004 0FB6      		in r0,__SREG__
 122 0006 0F92      		push r0
 123 0008 1124      		clr __zero_reg__
 124 000a 2F93      		push r18
 125 000c 3F93      		push r19
 126 000e 4F93      		push r20
 127 0010 6F93      		push r22
 128 0012 7F93      		push r23
 129 0014 8F93      		push r24
 130 0016 9F93      		push r25
 131 0018 EF93      		push r30
 132 001a FF93      		push r31
 133               	/* prologue: Signal */
 134               	/* frame size = 0 */
 135               	/* stack size = 12 */
 136               	.L__stack_usage = 12
 137 001c 4FB7      		in r20,__SREG__
 138               	/* #APP */
 139               	 ;  50 "f:\vscode-win32-x64-1.75.1\toolchains\avr-gcc\avr\include\util\atomic.h" 1
 140 001e F894      		cli
 141               	 ;  0 "" 2
 142               	/* #NOAPP */
 143 0020 83B1      		in r24,0x3
 144 0022 8695      		lsr r24
 145 0024 8695      		lsr r24
 146 0026 91E0      		ldi r25,lo8(1)
 147 0028 8927      		eor r24,r25
 148 002a 8170      		andi r24,lo8(1)
 149 002c EBE6      		ldi r30,lo8(107)
 150 002e F0E0      		ldi r31,0
 151 0030 9081      		ld r25,Z
 152 0032 9B7F      		andi r25,lo8(-5)
 153 0034 9083      		st Z,r25
 154 0036 2091 8400 		lds r18,132
 155 003a 3091 8500 		lds r19,132+1
 156 003e 6091 0000 		lds r22,old_time
 157 0042 7091 0000 		lds r23,old_time+1
 158 0046 261B      		sub r18,r22
 159 0048 370B      		sbc r19,r23
 160 004a 293F      		cpi r18,-7
 161 004c 3105      		cpc r19,__zero_reg__
 162 004e 00F0      		brlo .L13
 163 0050 9091 0000 		lds r25,inter
 164 0054 21E0      		ldi r18,lo8(1)
 165 0056 9111      		cpse r25,__zero_reg__
 166 0058 20E0      		ldi r18,0
 167               	.L14:
 168 005a 9091 0000 		lds r25,inter
 169 005e 9227      		eor r25,r18
 170 0060 9093 0000 		sts inter,r25
 171 0064 2091 8400 		lds r18,132
 172 0068 3091 8500 		lds r19,132+1
 173 006c 3093 0000 		sts old_time+1,r19
 174 0070 2093 0000 		sts old_time,r18
GAS LISTING C:\Users\Aluno\AppData\Local\Temp\ccoLMpP2.s 			page 4


 175               	.L13:
 176 0074 8093 0000 		sts old_read,r24
 177 0078 EBE6      		ldi r30,lo8(107)
 178 007a F0E0      		ldi r31,0
 179 007c 8081      		ld r24,Z
 180 007e 8460      		ori r24,lo8(4)
 181 0080 8083      		st Z,r24
 182 0082 4FBF      		out __SREG__,r20
 183               	/* epilogue start */
 184 0084 FF91      		pop r31
 185 0086 EF91      		pop r30
 186 0088 9F91      		pop r25
 187 008a 8F91      		pop r24
 188 008c 7F91      		pop r23
 189 008e 6F91      		pop r22
 190 0090 4F91      		pop r20
 191 0092 3F91      		pop r19
 192 0094 2F91      		pop r18
 193 0096 0F90      		pop r0
 194 0098 0FBE      		out __SREG__,r0
 195 009a 0F90      		pop r0
 196 009c 1F90      		pop r1
 197 009e 1895      		reti
 199               	.global	inter
 200               		.section	.bss.inter,"aw",@nobits
 203               	inter:
 204 0000 00        		.zero	1
 205               	.global	new_time
 206               		.section	.bss.new_time,"aw",@nobits
 209               	new_time:
 210 0000 0000      		.zero	2
 211               	.global	old_time
 212               		.section	.bss.old_time,"aw",@nobits
 215               	old_time:
 216 0000 0000      		.zero	2
 217               	.global	gbl_read
 218               		.section	.bss.gbl_read,"aw",@nobits
 221               	gbl_read:
 222 0000 00        		.zero	1
 223               	.global	old_read
 224               		.section	.bss.old_read,"aw",@nobits
 227               	old_read:
 228 0000 00        		.zero	1
 229               		.ident	"GCC: (GNU) 12.1.0"
 230               	.global __do_clear_bss
GAS LISTING C:\Users\Aluno\AppData\Local\Temp\ccoLMpP2.s 			page 5


DEFINED SYMBOLS
                            *ABS*:0000000000000000 main.cpp
C:\Users\Aluno\AppData\Local\Temp\ccoLMpP2.s:2      *ABS*:000000000000003e __SP_H__
C:\Users\Aluno\AppData\Local\Temp\ccoLMpP2.s:3      *ABS*:000000000000003d __SP_L__
C:\Users\Aluno\AppData\Local\Temp\ccoLMpP2.s:4      *ABS*:000000000000003f __SREG__
C:\Users\Aluno\AppData\Local\Temp\ccoLMpP2.s:5      *ABS*:0000000000000000 __tmp_reg__
C:\Users\Aluno\AppData\Local\Temp\ccoLMpP2.s:6      *ABS*:0000000000000001 __zero_reg__
C:\Users\Aluno\AppData\Local\Temp\ccoLMpP2.s:11     .text.main:0000000000000000 main
C:\Users\Aluno\AppData\Local\Temp\ccoLMpP2.s:203    .bss.inter:0000000000000000 inter
C:\Users\Aluno\AppData\Local\Temp\ccoLMpP2.s:66     .text.main:000000000000005c L0
C:\Users\Aluno\AppData\Local\Temp\ccoLMpP2.s:82     .text.main:000000000000007c L0
C:\Users\Aluno\AppData\Local\Temp\ccoLMpP2.s:103    .text.main:00000000000000a4 L0
C:\Users\Aluno\AppData\Local\Temp\ccoLMpP2.s:118    .text.__vector_3:0000000000000000 __vector_3
C:\Users\Aluno\AppData\Local\Temp\ccoLMpP2.s:215    .bss.old_time:0000000000000000 old_time
C:\Users\Aluno\AppData\Local\Temp\ccoLMpP2.s:227    .bss.old_read:0000000000000000 old_read
C:\Users\Aluno\AppData\Local\Temp\ccoLMpP2.s:209    .bss.new_time:0000000000000000 new_time
C:\Users\Aluno\AppData\Local\Temp\ccoLMpP2.s:221    .bss.gbl_read:0000000000000000 gbl_read
C:\Users\Aluno\AppData\Local\Temp\ccoLMpP2.s:52     .text.main:000000000000003e .L3
C:\Users\Aluno\AppData\Local\Temp\ccoLMpP2.s:62     .text.main:0000000000000052 .L11
C:\Users\Aluno\AppData\Local\Temp\ccoLMpP2.s:68     .text.main:000000000000005e .L4
C:\Users\Aluno\AppData\Local\Temp\ccoLMpP2.s:78     .text.main:0000000000000072 .L12
C:\Users\Aluno\AppData\Local\Temp\ccoLMpP2.s:105    .text.main:00000000000000a6 .L5
C:\Users\Aluno\AppData\Local\Temp\ccoLMpP2.s:89     .text.main:0000000000000086 .L8
C:\Users\Aluno\AppData\Local\Temp\ccoLMpP2.s:99     .text.main:000000000000009a .L13
C:\Users\Aluno\AppData\Local\Temp\ccoLMpP2.s:49     .text.main:000000000000003c .L10
C:\Users\Aluno\AppData\Local\Temp\ccoLMpP2.s:86     .text.main:0000000000000082 .L11
C:\Users\Aluno\AppData\Local\Temp\ccoLMpP2.s:175    .text.__vector_3:0000000000000074 .L13

UNDEFINED SYMBOLS
__do_clear_bss
